; ModuleID = '14/825.c'
source_filename = "14/825.c"
target datalayout = "e-m:e-p270:32:32-p271:32:32-p272:64:64-i64:64-f80:128-n8:16:32:64-S128"
target triple = "x86_64-pc-linux-gnu"

%struct.anon = type { [100000 x i32], [100000 x i32], [100000 x i32] }

@.str = private unnamed_addr constant [3 x i8] c"%d\00", align 1
@.str.1 = private unnamed_addr constant [9 x i8] c"%d %d %d\00", align 1
@stu = common dso_local global %struct.anon zeroinitializer, align 4
@.str.2 = private unnamed_addr constant [18 x i8] c"%d %d\0A%d %d\0A%d %d\00", align 1

; Function Attrs: noinline nounwind uwtable
define dso_local i32 @main() #0 {
  %1 = alloca i32, align 4
  %2 = alloca i32, align 4
  %3 = alloca i32, align 4
  %4 = alloca [100000 x i32], align 16
  %5 = alloca i32, align 4
  %6 = alloca i32, align 4
  %7 = alloca i32, align 4
  %8 = alloca i32, align 4
  %9 = alloca i32, align 4
  %10 = alloca i32, align 4
  store i32 0, i32* %1, align 4
  store i32 0, i32* %5, align 4
  store i32 0, i32* %6, align 4
  store i32 0, i32* %7, align 4
  %11 = call i32 (i8*, ...) @__isoc99_scanf(i8* getelementptr inbounds ([3 x i8], [3 x i8]* @.str, i64 0, i64 0), i32* %2)
  store i32 0, i32* %3, align 4
  br label %12

12:                                               ; preds = %27, %0
  %13 = load i32, i32* %3, align 4
  %14 = load i32, i32* %2, align 4
  %15 = icmp slt i32 %13, %14
  br i1 %15, label %16, label %30

16:                                               ; preds = %12
  %17 = load i32, i32* %3, align 4
  %18 = sext i32 %17 to i64
  %19 = getelementptr inbounds [100000 x i32], [100000 x i32]* getelementptr inbounds (%struct.anon, %struct.anon* @stu, i32 0, i32 0), i64 0, i64 %18
  %20 = load i32, i32* %3, align 4
  %21 = sext i32 %20 to i64
  %22 = getelementptr inbounds [100000 x i32], [100000 x i32]* getelementptr inbounds (%struct.anon, %struct.anon* @stu, i32 0, i32 1), i64 0, i64 %21
  %23 = load i32, i32* %3, align 4
  %24 = sext i32 %23 to i64
  %25 = getelementptr inbounds [100000 x i32], [100000 x i32]* getelementptr inbounds (%struct.anon, %struct.anon* @stu, i32 0, i32 2), i64 0, i64 %24
  %26 = call i32 (i8*, ...) @__isoc99_scanf(i8* getelementptr inbounds ([9 x i8], [9 x i8]* @.str.1, i64 0, i64 0), i32* %19, i32* %22, i32* %25)
  br label %27

27:                                               ; preds = %16
  %28 = load i32, i32* %3, align 4
  %29 = add nsw i32 %28, 1
  store i32 %29, i32* %3, align 4
  br label %12

30:                                               ; preds = %12
  store i32 0, i32* %3, align 4
  br label %31

31:                                               ; preds = %37, %30
  %32 = load i32, i32* %3, align 4
  %33 = sext i32 %32 to i64
  %34 = getelementptr inbounds [100000 x i32], [100000 x i32]* getelementptr inbounds (%struct.anon, %struct.anon* @stu, i32 0, i32 0), i64 0, i64 %33
  %35 = load i32, i32* %34, align 4
  %36 = icmp sgt i32 %35, 0
  br i1 %36, label %37, label %52

37:                                               ; preds = %31
  %38 = load i32, i32* %3, align 4
  %39 = sext i32 %38 to i64
  %40 = getelementptr inbounds [100000 x i32], [100000 x i32]* getelementptr inbounds (%struct.anon, %struct.anon* @stu, i32 0, i32 1), i64 0, i64 %39
  %41 = load i32, i32* %40, align 4
  %42 = load i32, i32* %3, align 4
  %43 = sext i32 %42 to i64
  %44 = getelementptr inbounds [100000 x i32], [100000 x i32]* getelementptr inbounds (%struct.anon, %struct.anon* @stu, i32 0, i32 2), i64 0, i64 %43
  %45 = load i32, i32* %44, align 4
  %46 = add nsw i32 %41, %45
  %47 = load i32, i32* %3, align 4
  %48 = sext i32 %47 to i64
  %49 = getelementptr inbounds [100000 x i32], [100000 x i32]* %4, i64 0, i64 %48
  store i32 %46, i32* %49, align 4
  %50 = load i32, i32* %3, align 4
  %51 = add nsw i32 %50, 1
  store i32 %51, i32* %3, align 4
  br label %31

52:                                               ; preds = %31
  store i32 0, i32* %3, align 4
  br label %53

53:                                               ; preds = %70, %52
  %54 = load i32, i32* %3, align 4
  %55 = load i32, i32* %2, align 4
  %56 = icmp slt i32 %54, %55
  br i1 %56, label %57, label %73

57:                                               ; preds = %53
  %58 = load i32, i32* %3, align 4
  %59 = sext i32 %58 to i64
  %60 = getelementptr inbounds [100000 x i32], [100000 x i32]* %4, i64 0, i64 %59
  %61 = load i32, i32* %60, align 4
  %62 = load i32, i32* %5, align 4
  %63 = icmp sgt i32 %61, %62
  br i1 %63, label %64, label %70

64:                                               ; preds = %57
  %65 = load i32, i32* %3, align 4
  %66 = sext i32 %65 to i64
  %67 = getelementptr inbounds [100000 x i32], [100000 x i32]* %4, i64 0, i64 %66
  %68 = load i32, i32* %67, align 4
  store i32 %68, i32* %5, align 4
  %69 = load i32, i32* %3, align 4
  store i32 %69, i32* %8, align 4
  br label %70

70:                                               ; preds = %64, %57
  %71 = load i32, i32* %3, align 4
  %72 = add nsw i32 %71, 1
  store i32 %72, i32* %3, align 4
  br label %53

73:                                               ; preds = %53
  store i32 0, i32* %3, align 4
  br label %74

74:                                               ; preds = %102, %73
  %75 = load i32, i32* %3, align 4
  %76 = load i32, i32* %2, align 4
  %77 = icmp slt i32 %75, %76
  br i1 %77, label %78, label %105

78:                                               ; preds = %74
  %79 = load i32, i32* %3, align 4
  %80 = sext i32 %79 to i64
  %81 = getelementptr inbounds [100000 x i32], [100000 x i32]* %4, i64 0, i64 %80
  %82 = load i32, i32* %81, align 4
  %83 = load i32, i32* %6, align 4
  %84 = icmp sgt i32 %82, %83
  br i1 %84, label %85, label %102

85:                                               ; preds = %78
  %86 = load i32, i32* %3, align 4
  %87 = sext i32 %86 to i64
  %88 = getelementptr inbounds [100000 x i32], [100000 x i32]* %4, i64 0, i64 %87
  %89 = load i32, i32* %88, align 4
  %90 = load i32, i32* %5, align 4
  %91 = icmp sle i32 %89, %90
  br i1 %91, label %92, label %102

92:                                               ; preds = %85
  %93 = load i32, i32* %3, align 4
  %94 = load i32, i32* %8, align 4
  %95 = icmp ne i32 %93, %94
  br i1 %95, label %96, label %102

96:                                               ; preds = %92
  %97 = load i32, i32* %3, align 4
  %98 = sext i32 %97 to i64
  %99 = getelementptr inbounds [100000 x i32], [100000 x i32]* %4, i64 0, i64 %98
  %100 = load i32, i32* %99, align 4
  store i32 %100, i32* %6, align 4
  %101 = load i32, i32* %3, align 4
  store i32 %101, i32* %9, align 4
  br label %102

102:                                              ; preds = %96, %92, %85, %78
  %103 = load i32, i32* %3, align 4
  %104 = add nsw i32 %103, 1
  store i32 %104, i32* %3, align 4
  br label %74

105:                                              ; preds = %74
  store i32 0, i32* %3, align 4
  br label %106

106:                                              ; preds = %138, %105
  %107 = load i32, i32* %3, align 4
  %108 = load i32, i32* %2, align 4
  %109 = icmp slt i32 %107, %108
  br i1 %109, label %110, label %141

110:                                              ; preds = %106
  %111 = load i32, i32* %3, align 4
  %112 = sext i32 %111 to i64
  %113 = getelementptr inbounds [100000 x i32], [100000 x i32]* %4, i64 0, i64 %112
  %114 = load i32, i32* %113, align 4
  %115 = load i32, i32* %7, align 4
  %116 = icmp sgt i32 %114, %115
  br i1 %116, label %117, label %138

117:                                              ; preds = %110
  %118 = load i32, i32* %3, align 4
  %119 = sext i32 %118 to i64
  %120 = getelementptr inbounds [100000 x i32], [100000 x i32]* %4, i64 0, i64 %119
  %121 = load i32, i32* %120, align 4
  %122 = load i32, i32* %6, align 4
  %123 = icmp sle i32 %121, %122
  br i1 %123, label %124, label %138

124:                                              ; preds = %117
  %125 = load i32, i32* %3, align 4
  %126 = load i32, i32* %9, align 4
  %127 = icmp ne i32 %125, %126
  br i1 %127, label %128, label %138

128:                                              ; preds = %124
  %129 = load i32, i32* %3, align 4
  %130 = load i32, i32* %8, align 4
  %131 = icmp ne i32 %129, %130
  br i1 %131, label %132, label %138

132:                                              ; preds = %128
  %133 = load i32, i32* %3, align 4
  %134 = sext i32 %133 to i64
  %135 = getelementptr inbounds [100000 x i32], [100000 x i32]* %4, i64 0, i64 %134
  %136 = load i32, i32* %135, align 4
  store i32 %136, i32* %7, align 4
  %137 = load i32, i32* %3, align 4
  store i32 %137, i32* %10, align 4
  br label %138

138:                                              ; preds = %132, %128, %124, %117, %110
  %139 = load i32, i32* %3, align 4
  %140 = add nsw i32 %139, 1
  store i32 %140, i32* %3, align 4
  br label %106

141:                                              ; preds = %106
  %142 = load i32, i32* %8, align 4
  %143 = sext i32 %142 to i64
  %144 = getelementptr inbounds [100000 x i32], [100000 x i32]* getelementptr inbounds (%struct.anon, %struct.anon* @stu, i32 0, i32 0), i64 0, i64 %143
  %145 = load i32, i32* %144, align 4
  %146 = load i32, i32* %5, align 4
  %147 = load i32, i32* %9, align 4
  %148 = sext i32 %147 to i64
  %149 = getelementptr inbounds [100000 x i32], [100000 x i32]* getelementptr inbounds (%struct.anon, %struct.anon* @stu, i32 0, i32 0), i64 0, i64 %148
  %150 = load i32, i32* %149, align 4
  %151 = load i32, i32* %6, align 4
  %152 = load i32, i32* %10, align 4
  %153 = sext i32 %152 to i64
  %154 = getelementptr inbounds [100000 x i32], [100000 x i32]* getelementptr inbounds (%struct.anon, %struct.anon* @stu, i32 0, i32 0), i64 0, i64 %153
  %155 = load i32, i32* %154, align 4
  %156 = load i32, i32* %7, align 4
  %157 = call i32 (i8*, ...) @printf(i8* getelementptr inbounds ([18 x i8], [18 x i8]* @.str.2, i64 0, i64 0), i32 %145, i32 %146, i32 %150, i32 %151, i32 %155, i32 %156)
  ret i32 0
}

declare dso_local i32 @__isoc99_scanf(i8*, ...) #1

declare dso_local i32 @printf(i8*, ...) #1


!llvm.module.flags = !{!0}
!llvm.ident = !{!1}

!0 = !{i32 1, !"wchar_size", i32 4}
!1 = !{!"clang version 10.0.0-4ubuntu1 "}
